; Function Attrs: mustprogress uwtable
define internal void @_ZN5faiss12_GLOBAL__N_114IVFSQScannerL2INS0_10DCTemplateINS0_17QuantizerTemplateINS0_9Codec4bitELb1ELi1EEENS0_12SimilarityL2ILi1EEELi1EEELi1EE8set_listElf(ptr nocapture noundef nonnull align 8 dereferenceable(144) %0, i64 noundef %1, float %2) unnamed_addr #0 align 2 {
  %4 = getelementptr inbounds i8, ptr %0, i64 8
  store i64 %1, ptr %4, align 8
  %5 = getelementptr inbounds i8, ptr %0, i64 96
  %6 = load i8, ptr %5, align 8
  %7 = and i8 %6, 1
  %.not = icmp eq i8 %7, 0
  br i1 %.not, label %18, label %8

8:                                                ; preds = %3
  %9 = getelementptr inbounds i8, ptr %0, i64 104
  %10 = load ptr, ptr %9, align 8
  %11 = getelementptr inbounds i8, ptr %0, i64 112
  %12 = load ptr, ptr %11, align 8
  %13 = getelementptr inbounds i8, ptr %0, i64 120
  %14 = load ptr, ptr %13, align 8
  %15 = load ptr, ptr %10, align 8
  %16 = getelementptr inbounds i8, ptr %15, i64 112
  %17 = load ptr, ptr %16, align 8
  tail call void %17(ptr noundef nonnull align 8 dereferenceable(36) %10, ptr noundef %12, ptr noundef %14, i64 noundef %1)
  br label %20

18:                                               ; preds = %3
  %19 = getelementptr inbounds i8, ptr %0, i64 112
  br label %20

20:                                               ; preds = %18, %8
  %.sink.in = phi ptr [ %19, %18 ], [ %13, %8 ]
  %.sink = load ptr, ptr %.sink.in, align 8
  %21 = getelementptr inbounds i8, ptr %0, i64 64
  store ptr %.sink, ptr %21, align 8
  ret void
}